; Function Attrs: nounwind uwtable
define range(i32 903, 902) i32 @mriStep_Nls(ptr noundef %0, i32 noundef %1) local_unnamed_addr #0 {
  %3 = alloca i64, align 8
  %4 = alloca i64, align 8
  call void @llvm.lifetime.start.p0(i64 8, ptr nonnull %3) #5
  store i64 0, ptr %3, align 8, !tbaa !74
  call void @llvm.lifetime.start.p0(i64 8, ptr nonnull %4) #5
  store i64 0, ptr %4, align 8, !tbaa !74
  %5 = getelementptr inbounds nuw i8, ptr %0, i64 136
  %6 = load ptr, ptr %5, align 8, !tbaa !59
  %7 = icmp eq ptr %6, null
  br i1 %7, label %8, label %9

8:                                                ; preds = %2
  tail call void (ptr, i32, i32, ptr, ptr, ptr, ...) @arkProcessError(ptr noundef nonnull %0, i32 noundef -21, i32 noundef 275, ptr noundef nonnull @__func__.mriStep_Nls, ptr noundef nonnull @.str, ptr noundef nonnull @.str.8) #5
  br label %93

9:                                                ; preds = %2
  %10 = getelementptr inbounds nuw i8, ptr %6, i64 328
  %11 = load ptr, ptr %10, align 8, !tbaa !60
  %.not = icmp eq ptr %11, null
  br i1 %.not, label %57, label %12

12:                                               ; preds = %9
  %13 = getelementptr inbounds nuw i8, ptr %6, i64 16
  %14 = load i32, ptr %13, align 8, !tbaa !53
  %.not51 = icmp eq i32 %14, 0
  %15 = icmp eq i32 %1, 6
  br i1 %.not51, label %16, label %19

16:                                               ; preds = %12
  %17 = icmp eq i32 %1, 8
  %18 = or i1 %15, %17
  br label %19

19:                                               ; preds = %12, %16
  %.sink54 = phi i1 [ %18, %16 ], [ %15, %12 ]
  %20 = select i1 %.sink54, i32 0, i32 2
  %21 = getelementptr inbounds nuw i8, ptr %6, i64 300
  store i32 %20, ptr %21, align 4, !tbaa !62
  %22 = getelementptr inbounds nuw i8, ptr %0, i64 972
  %23 = load i32, ptr %22, align 4, !tbaa !68
  %.not52 = icmp eq i32 %23, 0
  br i1 %.not52, label %24, label %36

24:                                               ; preds = %19
  %25 = getelementptr inbounds nuw i8, ptr %6, i64 280
  %26 = load i32, ptr %25, align 8, !tbaa !75
  %27 = icmp slt i32 %26, 0
  br i1 %27, label %36, label %28

28:                                               ; preds = %24
  %29 = getelementptr inbounds nuw i8, ptr %6, i64 208
  %30 = load double, ptr %29, align 8, !tbaa !69
  %31 = fadd double %30, -1.000000e+00
  %32 = tail call double @llvm.fabs.f64(double %31)
  %33 = getelementptr inbounds nuw i8, ptr %6, i64 216
  %34 = load double, ptr %33, align 8, !tbaa !76
  %35 = fcmp ogt double %32, %34
  br label %36

36:                                               ; preds = %28, %24, %19
  %37 = phi i1 [ true, %24 ], [ true, %19 ], [ %35, %28 ]
  br i1 %.not51, label %43, label %38

38:                                               ; preds = %36
  br i1 %37, label %59, label %39

39:                                               ; preds = %38
  %40 = getelementptr inbounds nuw i8, ptr %6, i64 20
  %41 = load i32, ptr %40, align 4, !tbaa !77
  %42 = icmp ne i32 %41, 0
  br label %59

43:                                               ; preds = %36
  %44 = add i32 %1, -7
  %45 = icmp ult i32 %44, 2
  %or.cond3 = or i1 %45, %37
  br i1 %or.cond3, label %59, label %46

46:                                               ; preds = %43
  %47 = getelementptr inbounds nuw i8, ptr %0, i64 816
  %48 = load i64, ptr %47, align 8, !tbaa !71
  %49 = getelementptr inbounds nuw i8, ptr %6, i64 288
  %50 = load i64, ptr %49, align 8, !tbaa !72
  %51 = getelementptr inbounds nuw i8, ptr %6, i64 280
  %52 = load i32, ptr %51, align 8, !tbaa !75
  %53 = tail call i32 @llvm.abs.i32(i32 %52, i1 true)
  %54 = zext nneg i32 %53 to i64
  %55 = add nsw i64 %50, %54
  %56 = icmp sge i64 %48, %55
  br label %59

57:                                               ; preds = %9
  %58 = getelementptr inbounds nuw i8, ptr %6, i64 248
  store double 1.000000e+00, ptr %58, align 8, !tbaa !55
  br label %59

59:                                               ; preds = %43, %46, %38, %39, %57
  %.048.shrunk = phi i1 [ false, %57 ], [ true, %38 ], [ %42, %39 ], [ true, %43 ], [ %56, %46 ]
  %.048 = zext i1 %.048.shrunk to i32
  %60 = getelementptr inbounds nuw i8, ptr %6, i64 152
  %61 = load ptr, ptr %60, align 8, !tbaa !78
  tail call void @N_VConst(double noundef 0.000000e+00, ptr noundef %61) #5
  %62 = getelementptr inbounds nuw i8, ptr %6, i64 272
  %63 = load double, ptr %62, align 8, !tbaa !79
  %64 = fmul double %63, 1.000000e-01
  %65 = getelementptr inbounds nuw i8, ptr %6, i64 264
  store double %64, ptr %65, align 8, !tbaa !73
  %66 = getelementptr inbounds nuw i8, ptr %6, i64 168
  %67 = load ptr, ptr %66, align 8, !tbaa !16
  %68 = getelementptr inbounds nuw i8, ptr %6, i64 144
  %69 = load ptr, ptr %68, align 8, !tbaa !33
  %70 = load ptr, ptr %60, align 8, !tbaa !78
  %71 = getelementptr inbounds nuw i8, ptr %0, i64 560
  %72 = load ptr, ptr %71, align 8, !tbaa !80
  %73 = tail call i32 @SUNNonlinSolSolve(ptr noundef %67, ptr noundef %69, ptr noundef %70, ptr noundef %72, double noundef %63, i32 noundef %.048, ptr noundef nonnull %0) #5
  %74 = load ptr, ptr %66, align 8, !tbaa !16
  %75 = call i32 @SUNNonlinSolGetNumIters(ptr noundef %74, ptr noundef nonnull %3) #5
  %76 = load i64, ptr %3, align 8, !tbaa !74
  %77 = getelementptr inbounds nuw i8, ptr %6, i64 432
  %78 = load i64, ptr %77, align 8, !tbaa !81
  %79 = add nsw i64 %78, %76
  store i64 %79, ptr %77, align 8, !tbaa !81
  %80 = load ptr, ptr %66, align 8, !tbaa !16
  %81 = call i32 @SUNNonlinSolGetNumConvFails(ptr noundef %80, ptr noundef nonnull %4) #5
  %82 = load i64, ptr %4, align 8, !tbaa !74
  %83 = getelementptr inbounds nuw i8, ptr %6, i64 440
  %84 = load i64, ptr %83, align 8, !tbaa !82
  %85 = add nsw i64 %84, %82
  store i64 %85, ptr %83, align 8, !tbaa !82
  switch i32 %73, label %92 [
    i32 0, label %86
    i32 902, label %93
  ]

86:                                               ; preds = %59
  %87 = getelementptr inbounds nuw i8, ptr %6, i64 304
  store i32 0, ptr %87, align 8, !tbaa !67
  %88 = load ptr, ptr %60, align 8, !tbaa !78
  %89 = load ptr, ptr %68, align 8, !tbaa !33
  %90 = getelementptr inbounds nuw i8, ptr %0, i64 584
  %91 = load ptr, ptr %90, align 8, !tbaa !36
  call void @N_VLinearSum(double noundef 1.000000e+00, ptr noundef %88, double noundef 1.000000e+00, ptr noundef %89, ptr noundef %91) #5
  br label %93

92:                                               ; preds = %59
  br label %93

93:                                               ; preds = %59, %92, %86, %8
  %.0 = phi i32 [ -21, %8 ], [ 0, %86 ], [ %73, %92 ], [ 4, %59 ]
  call void @llvm.lifetime.end.p0(i64 8, ptr nonnull %4) #5
  call void @llvm.lifetime.end.p0(i64 8, ptr nonnull %3) #5
  ret i32 %.0
}